target datalayout = "e-m:e-p270:32:32-p271:32:32-p272:64:64-i64:64-i128:128-f80:128-n8:16:32:64-S128"
target triple = "x86_64-pc-linux-gnu"

@tty_out = internal global ptr null, align 8
@.str.6 = private unnamed_addr constant [15 x i8] c"Verifying - %s\00", align 1
@.str.7 = private unnamed_addr constant [16 x i8] c"Verify failure\0A\00", align 1

; Function Attrs: nounwind uwtable
define internal i32 @read_string(ptr noundef %0, ptr noundef %1) #0 {
  %3 = alloca i32, align 4
  %4 = alloca ptr, align 8
  %5 = alloca ptr, align 8
  %6 = alloca i32, align 4
  %7 = alloca i32, align 4
  store ptr %0, ptr %4, align 8, !tbaa !8
  store ptr %1, ptr %5, align 8, !tbaa !20
  call void @llvm.lifetime.start.p0(i64 4, ptr %6) #8
  store i32 0, ptr %6, align 4, !tbaa !17
  %8 = load ptr, ptr %5, align 8, !tbaa !20
  %9 = call i32 @UI_get_string_type(ptr noundef %8)
  switch i32 %9, label %70 [
    i32 3, label %10
    i32 1, label %27
    i32 2, label %40
    i32 0, label %69
    i32 4, label %69
    i32 5, label %69
  ]

10:                                               ; preds = %2
  %11 = load ptr, ptr %5, align 8, !tbaa !20
  %12 = call ptr @UI_get0_output_string(ptr noundef %11)
  %13 = load ptr, ptr @tty_out, align 8, !tbaa !18
  %14 = call i32 @fputs(ptr noundef %12, ptr noundef %13)
  %15 = load ptr, ptr %5, align 8, !tbaa !20
  %16 = call ptr @UI_get0_action_string(ptr noundef %15)
  %17 = load ptr, ptr @tty_out, align 8, !tbaa !18
  %18 = call i32 @fputs(ptr noundef %16, ptr noundef %17)
  %19 = load ptr, ptr @tty_out, align 8, !tbaa !18
  %20 = call i32 @fflush(ptr noundef %19)
  %21 = load ptr, ptr %4, align 8, !tbaa !8
  %22 = load ptr, ptr %5, align 8, !tbaa !20
  %23 = load ptr, ptr %5, align 8, !tbaa !20
  %24 = call i32 @UI_get_input_flags(ptr noundef %23)
  %25 = and i32 %24, 1
  %26 = call i32 @read_string_inner(ptr noundef %21, ptr noundef %22, i32 noundef %25, i32 noundef 0)
  store i32 %26, ptr %3, align 4
  store i32 1, ptr %7, align 4
  br label %71

27:                                               ; preds = %2
  %28 = load ptr, ptr %5, align 8, !tbaa !20
  %29 = call ptr @UI_get0_output_string(ptr noundef %28)
  %30 = load ptr, ptr @tty_out, align 8, !tbaa !18
  %31 = call i32 @fputs(ptr noundef %29, ptr noundef %30)
  %32 = load ptr, ptr @tty_out, align 8, !tbaa !18
  %33 = call i32 @fflush(ptr noundef %32)
  %34 = load ptr, ptr %4, align 8, !tbaa !8
  %35 = load ptr, ptr %5, align 8, !tbaa !20
  %36 = load ptr, ptr %5, align 8, !tbaa !20
  %37 = call i32 @UI_get_input_flags(ptr noundef %36)
  %38 = and i32 %37, 1
  %39 = call i32 @read_string_inner(ptr noundef %34, ptr noundef %35, i32 noundef %38, i32 noundef 1)
  store i32 %39, ptr %3, align 4
  store i32 1, ptr %7, align 4
  br label %71

40:                                               ; preds = %2
  %41 = load ptr, ptr @tty_out, align 8, !tbaa !18
  %42 = load ptr, ptr %5, align 8, !tbaa !20
  %43 = call ptr @UI_get0_output_string(ptr noundef %42)
  %44 = call i32 (ptr, ptr, ...) @fprintf(ptr noundef %41, ptr noundef @.str.6, ptr noundef %43) #8
  %45 = load ptr, ptr @tty_out, align 8, !tbaa !18
  %46 = call i32 @fflush(ptr noundef %45)
  %47 = load ptr, ptr %4, align 8, !tbaa !8
  %48 = load ptr, ptr %5, align 8, !tbaa !20
  %49 = load ptr, ptr %5, align 8, !tbaa !20
  %50 = call i32 @UI_get_input_flags(ptr noundef %49)
  %51 = and i32 %50, 1
  %52 = call i32 @read_string_inner(ptr noundef %47, ptr noundef %48, i32 noundef %51, i32 noundef 1)
  store i32 %52, ptr %6, align 4, !tbaa !17
  %53 = icmp sle i32 %52, 0
  br i1 %53, label %54, label %56

54:                                               ; preds = %40
  %55 = load i32, ptr %6, align 4, !tbaa !17
  store i32 %55, ptr %3, align 4
  store i32 1, ptr %7, align 4
  br label %71

56:                                               ; preds = %40
  %57 = load ptr, ptr %5, align 8, !tbaa !20
  %58 = call ptr @UI_get0_result_string(ptr noundef %57)
  %59 = load ptr, ptr %5, align 8, !tbaa !20
  %60 = call ptr @UI_get0_test_string(ptr noundef %59)
  %61 = call i32 @strcmp(ptr noundef %58, ptr noundef %60) #10
  %62 = icmp ne i32 %61, 0
  br i1 %62, label %63, label %68

63:                                               ; preds = %56
  %64 = load ptr, ptr @tty_out, align 8, !tbaa !18
  %65 = call i32 (ptr, ptr, ...) @fprintf(ptr noundef %64, ptr noundef @.str.7) #8
  %66 = load ptr, ptr @tty_out, align 8, !tbaa !18
  %67 = call i32 @fflush(ptr noundef %66)
  store i32 0, ptr %3, align 4
  store i32 1, ptr %7, align 4
  br label %71

68:                                               ; preds = %56
  br label %70

69:                                               ; preds = %2, %2, %2
  br label %70

70:                                               ; preds = %2, %69, %68
  store i32 1, ptr %3, align 4
  store i32 1, ptr %7, align 4
  br label %71

71:                                               ; preds = %70, %63, %54, %27, %10
  call void @llvm.lifetime.end.p0(i64 4, ptr %6) #8
  %72 = load i32, ptr %3, align 4
  ret i32 %72
}