; Function Attrs: nounwind uwtable
define internal range(i32 -1, 2) i32 @read_string(ptr noundef %0, ptr noundef %1) #3 {
  %3 = tail call i32 @UI_get_string_type(ptr noundef %1) #15
  switch i32 %3, label %44 [
    i32 3, label %4
    i32 1, label %16
    i32 2, label %25
  ]

4:                                                ; preds = %2
  %5 = tail call ptr @UI_get0_output_string(ptr noundef %1) #15
  %6 = load ptr, ptr @tty_out, align 8, !tbaa !15
  %7 = tail call i32 @fputs(ptr noundef %5, ptr noundef %6)
  %8 = tail call ptr @UI_get0_action_string(ptr noundef %1) #15
  %9 = load ptr, ptr @tty_out, align 8, !tbaa !15
  %10 = tail call i32 @fputs(ptr noundef %8, ptr noundef %9)
  %11 = load ptr, ptr @tty_out, align 8, !tbaa !15
  %12 = tail call i32 @fflush(ptr noundef %11)
  %13 = tail call i32 @UI_get_input_flags(ptr noundef %1) #15
  %14 = and i32 %13, 1
  %15 = tail call fastcc i32 @read_string_inner(ptr noundef %0, ptr noundef %1, i32 noundef %14, i32 noundef 0)
  br label %44

16:                                               ; preds = %2
  %17 = tail call ptr @UI_get0_output_string(ptr noundef %1) #15
  %18 = load ptr, ptr @tty_out, align 8, !tbaa !15
  %19 = tail call i32 @fputs(ptr noundef %17, ptr noundef %18)
  %20 = load ptr, ptr @tty_out, align 8, !tbaa !15
  %21 = tail call i32 @fflush(ptr noundef %20)
  %22 = tail call i32 @UI_get_input_flags(ptr noundef %1) #15
  %23 = and i32 %22, 1
  %24 = tail call fastcc i32 @read_string_inner(ptr noundef %0, ptr noundef %1, i32 noundef %23, i32 noundef 1)
  br label %44

25:                                               ; preds = %2
  %26 = load ptr, ptr @tty_out, align 8, !tbaa !15
  %27 = tail call ptr @UI_get0_output_string(ptr noundef %1) #15
  %28 = tail call i32 (ptr, ptr, ...) @fprintf(ptr noundef %26, ptr noundef nonnull @.str.6, ptr noundef %27) #15
  %29 = load ptr, ptr @tty_out, align 8, !tbaa !15
  %30 = tail call i32 @fflush(ptr noundef %29)
  %31 = tail call i32 @UI_get_input_flags(ptr noundef %1) #15
  %32 = and i32 %31, 1
  %33 = tail call fastcc i32 @read_string_inner(ptr noundef %0, ptr noundef %1, i32 noundef %32, i32 noundef 1)
  %34 = icmp slt i32 %33, 1
  br i1 %34, label %44, label %35

35:                                               ; preds = %25
  %36 = tail call ptr @UI_get0_result_string(ptr noundef %1) #15
  %37 = tail call ptr @UI_get0_test_string(ptr noundef %1) #15
  %38 = tail call i32 @strcmp(ptr noundef nonnull dereferenceable(1) %36, ptr noundef nonnull dereferenceable(1) %37) #17
  %.not = icmp eq i32 %38, 0
  br i1 %.not, label %44, label %39

39:                                               ; preds = %35
  %40 = load ptr, ptr @tty_out, align 8, !tbaa !15
  %41 = tail call i64 @fwrite(ptr nonnull @.str.7, i64 15, i64 1, ptr %40)
  %42 = load ptr, ptr @tty_out, align 8, !tbaa !15
  %43 = tail call i32 @fflush(ptr noundef %42)
  br label %44

44:                                               ; preds = %2, %35, %25, %39, %16, %4
  %.0 = phi i32 [ 0, %39 ], [ %24, %16 ], [ %15, %4 ], [ %33, %25 ], [ 1, %35 ], [ 1, %2 ]
  ret i32 %.0
}